; Function Attrs: nounwind uwtable
define ptr @l_Lean_Meta_mkCongrSimpCore_x3f_mk_x3f_go___lambda__1(ptr noundef %0, ptr noundef %1, ptr noundef %2, ptr noundef %3, ptr noundef %4, i8 noundef zeroext %5, ptr noundef %6, ptr noundef %7, ptr noundef %8, ptr noundef %9, ptr noundef %10, ptr noundef %11, ptr noundef %12, ptr noundef %13, ptr noundef %14, ptr noundef %15) local_unnamed_addr #1 {
  %17 = ptrtoint ptr %0 to i64
  %18 = and i64 %17, 1
  %.not = icmp eq i64 %18, 0
  br i1 %.not, label %.critedge.i, label %19, !prof !15

19:                                               ; preds = %16
  %20 = lshr i64 %17, 1
  %21 = add nuw i64 %20, 1
  %22 = icmp sgt i64 %21, -1
  br i1 %22, label %23, label %27, !prof !9

23:                                               ; preds = %19
  %24 = shl nuw i64 %21, 1
  %25 = or disjoint i64 %24, 1
  %26 = inttoptr i64 %25 to ptr
  br label %lean_nat_add.exit

27:                                               ; preds = %19
  %28 = tail call ptr @lean_big_usize_to_nat(i64 noundef range(i64 0, -1) %21) #7
  br label %lean_nat_add.exit

.critedge.i:                                      ; preds = %16
  %29 = tail call ptr @lean_nat_big_add(ptr noundef %0, ptr noundef nonnull inttoptr (i64 3 to ptr)) #7
  br label %lean_nat_add.exit

lean_nat_add.exit:                                ; preds = %27, %23, %.critedge.i
  %.0.i = phi ptr [ %29, %.critedge.i ], [ %26, %23 ], [ %28, %27 ]
  %30 = ptrtoint ptr %2 to i64
  %31 = and i64 %30, 1
  %.not33 = icmp eq i64 %31, 0
  br i1 %.not33, label %32, label %lean_inc.exit28

32:                                               ; preds = %lean_nat_add.exit
  %.val.i = load i32, ptr %2, align 4, !tbaa !4
  %33 = icmp sgt i32 %.val.i, 0
  br i1 %33, label %34, label %36, !prof !9

34:                                               ; preds = %32
  %35 = add nuw i32 %.val.i, 1
  store i32 %35, ptr %2, align 4, !tbaa !4
  br label %lean_inc.exit28

36:                                               ; preds = %32
  %.not.i = icmp eq i32 %.val.i, 0
  br i1 %.not.i, label %lean_inc.exit28, label %37

37:                                               ; preds = %36
  tail call void @lean_inc_ref_cold(ptr noundef nonnull %2) #7
  br label %lean_inc.exit28

lean_inc.exit28:                                  ; preds = %37, %36, %34, %lean_nat_add.exit
  %38 = tail call ptr @lean_array_push(ptr noundef %1, ptr noundef %2) #7
  %39 = ptrtoint ptr %10 to i64
  %40 = and i64 %39, 1
  %.not34 = icmp eq i64 %40, 0
  br i1 %.not34, label %41, label %lean_inc.exit

41:                                               ; preds = %lean_inc.exit28
  %.val.i30 = load i32, ptr %10, align 4, !tbaa !4
  %42 = icmp sgt i32 %.val.i30, 0
  br i1 %42, label %43, label %45, !prof !9

43:                                               ; preds = %41
  %44 = add nuw i32 %.val.i30, 1
  store i32 %44, ptr %10, align 4, !tbaa !4
  br label %lean_inc.exit

45:                                               ; preds = %41
  %.not.i31 = icmp eq i32 %.val.i30, 0
  br i1 %.not.i31, label %lean_inc.exit, label %46

46:                                               ; preds = %45
  tail call void @lean_inc_ref_cold(ptr noundef nonnull %10) #7
  br label %lean_inc.exit

lean_inc.exit:                                    ; preds = %46, %45, %43, %lean_inc.exit28
  tail call void @lean_inc_heartbeat() #7
  %47 = tail call noalias ptr @mi_malloc_small(i64 noundef 16) #7
  %48 = icmp eq ptr %47, null
  br i1 %48, label %49, label %lean_alloc_ctor.exit

49:                                               ; preds = %lean_inc.exit
  tail call void @lean_internal_panic_out_of_memory() #8
  unreachable

lean_alloc_ctor.exit:                             ; preds = %lean_inc.exit
  %50 = getelementptr inbounds nuw i8, ptr %47, i64 4
  store i32 1, ptr %47, align 4, !tbaa !4
  store i32 16842768, ptr %50, align 4
  %51 = getelementptr inbounds nuw i8, ptr %47, i64 8
  store ptr %10, ptr %51, align 8, !tbaa !10
  %52 = tail call ptr @lean_array_push(ptr noundef %3, ptr noundef nonnull %47) #7
  %53 = tail call ptr @lean_array_push(ptr noundef %4, ptr noundef %2) #7
  %54 = tail call ptr @lean_array_push(ptr noundef %53, ptr noundef %10) #7
  %55 = tail call ptr @l_Lean_Meta_mkCongrSimpCore_x3f_mk_x3f_go(i8 noundef zeroext %5, ptr noundef %6, ptr noundef %7, ptr noundef %8, ptr noundef %9, ptr noundef %.0.i, ptr noundef %38, ptr noundef %52, ptr noundef %54, ptr noundef %11, ptr noundef %12, ptr noundef %13, ptr noundef %14, ptr noundef %15)
  ret ptr %55
}